target datalayout = "e-m:e-p270:32:32-p271:32:32-p272:64:64-i64:64-i128:128-f80:128-n8:16:32:64-S128"
target triple = "x86_64-pc-linux-gnu"

%struct.ItemPointerData = type { %struct.BlockIdData, i16 }
%struct.BlockIdData = type { i16, i16 }
%struct.HashScanOpaqueData = type { i32, i32, i32, i8, i8, ptr, i32, %struct.HashScanPosData }
%struct.HashScanPosData = type { i32, i32, i32, i32, i32, i32, i32, [408 x %struct.HashScanPosItem] }
%struct.HashScanPosItem = type { %struct.ItemPointerData, i16 }
%struct.IndexScanDescData = type { ptr, ptr, ptr, i32, i32, ptr, ptr, i8, i8, i8, i8, i8, ptr, ptr, ptr, ptr, ptr, %struct.ItemPointerData, i8, ptr, i8, ptr, ptr, i8, ptr }

; Function Attrs: nounwind uwtable
define dso_local i64 @hashgetbitmap(ptr noundef %0, ptr noundef %1) #0 {
  %3 = alloca ptr, align 8
  %4 = alloca ptr, align 8
  %5 = alloca ptr, align 8
  %6 = alloca i8, align 1
  %7 = alloca i64, align 8
  %8 = alloca ptr, align 8
  store ptr %0, ptr %3, align 8
  store ptr %1, ptr %4, align 8
  call void @llvm.lifetime.start.p0(i64 8, ptr %5) #6
  %9 = load ptr, ptr %3, align 8
  %10 = getelementptr inbounds nuw %struct.IndexScanDescData, ptr %9, i32 0, i32 12
  %11 = load ptr, ptr %10, align 8
  store ptr %11, ptr %5, align 8
  call void @llvm.lifetime.start.p0(i64 1, ptr %6) #6
  call void @llvm.lifetime.start.p0(i64 8, ptr %7) #6
  store i64 0, ptr %7, align 8
  call void @llvm.lifetime.start.p0(i64 8, ptr %8) #6
  %12 = load ptr, ptr %3, align 8
  %13 = call zeroext i1 @_hash_first(ptr noundef %12, i32 noundef 1)
  %14 = zext i1 %13 to i8
  store i8 %14, ptr %6, align 1
  br label %15

15:                                               ; preds = %18, %2
  %16 = load i8, ptr %6, align 1, !range !4, !noundef !5
  %17 = trunc i8 %16 to i1
  br i1 %17, label %18, label %36

18:                                               ; preds = %15
  %19 = load ptr, ptr %5, align 8
  %20 = getelementptr inbounds nuw %struct.HashScanOpaqueData, ptr %19, i32 0, i32 7
  %21 = getelementptr inbounds nuw %struct.HashScanPosData, ptr %20, i32 0, i32 7
  %22 = load ptr, ptr %5, align 8
  %23 = getelementptr inbounds nuw %struct.HashScanOpaqueData, ptr %22, i32 0, i32 7
  %24 = getelementptr inbounds nuw %struct.HashScanPosData, ptr %23, i32 0, i32 6
  %25 = load i32, ptr %24, align 4
  %26 = sext i32 %25 to i64
  %27 = getelementptr inbounds [408 x %struct.HashScanPosItem], ptr %21, i64 0, i64 %26
  store ptr %27, ptr %8, align 8
  %28 = load ptr, ptr %4, align 8
  %29 = load ptr, ptr %8, align 8
  %30 = getelementptr inbounds nuw %struct.HashScanPosItem, ptr %29, i32 0, i32 0
  call void @tbm_add_tuples(ptr noundef %28, ptr noundef %30, i32 noundef 1, i1 noundef zeroext true)
  %31 = load i64, ptr %7, align 8
  %32 = add i64 %31, 1
  store i64 %32, ptr %7, align 8
  %33 = load ptr, ptr %3, align 8
  %34 = call zeroext i1 @_hash_next(ptr noundef %33, i32 noundef 1)
  %35 = zext i1 %34 to i8
  store i8 %35, ptr %6, align 1
  br label %15, !llvm.loop !8

36:                                               ; preds = %15
  %37 = load i64, ptr %7, align 8
  call void @llvm.lifetime.end.p0(i64 8, ptr %8) #6
  call void @llvm.lifetime.end.p0(i64 8, ptr %7) #6
  call void @llvm.lifetime.end.p0(i64 1, ptr %6) #6
  call void @llvm.lifetime.end.p0(i64 8, ptr %5) #6
  ret i64 %37
}