; Function Attrs: nounwind uwtable
define dso_local i64 @hashgetbitmap(ptr noundef %0, ptr noundef %1) #0 {
  %3 = getelementptr inbounds nuw i8, ptr %0, i64 56
  %4 = load ptr, ptr %3, align 8
  %5 = tail call zeroext i1 @_hash_first(ptr noundef %0, i32 noundef 1) #9
  br i1 %5, label %.lr.ph, label %._crit_edge

.lr.ph:                                           ; preds = %2
  %6 = getelementptr inbounds nuw i8, ptr %4, i64 56
  %7 = getelementptr inbounds nuw i8, ptr %4, i64 52
  br label %8

8:                                                ; preds = %.lr.ph, %8
  %.0910 = phi i64 [ 0, %.lr.ph ], [ %12, %8 ]
  %9 = load i32, ptr %7, align 4
  %10 = sext i32 %9 to i64
  %11 = getelementptr inbounds [408 x %struct.HashScanPosItem], ptr %6, i64 0, i64 %10
  tail call void @tbm_add_tuples(ptr noundef %1, ptr noundef nonnull %11, i32 noundef 1, i1 noundef zeroext true) #9
  %12 = add i64 %.0910, 1
  %13 = tail call zeroext i1 @_hash_next(ptr noundef %0, i32 noundef 1) #9
  br i1 %13, label %8, label %._crit_edge, !llvm.loop !8

._crit_edge:                                      ; preds = %8, %2
  %.09.lcssa = phi i64 [ 0, %2 ], [ %12, %8 ]
  ret i64 %.09.lcssa
}